target datalayout = "e-m:e-p270:32:32-p271:32:32-p272:64:64-i64:64-i128:128-f80:128-n8:16:32:64-S128"
target triple = "x86_64-pc-linux-gnu"

%struct.BackendGlobalData = type <{ ptr, ptr, i8, i8, i8, i8, i8, i8, i8, i8, i8, [3 x i8], i32, ptr, ptr, ptr, ptr, ptr, ptr, ptr, ptr, ptr, ptr, ptr, ptr, ptr, i32, %struct.jvmtiCapabilities, i8, [3 x i8], %struct.jvmtiEventCallbacks, ptr, ptr, ptr, ptr, ptr, ptr, ptr, i32, [4 x i8], ptr, i64, i32, [4 x i8], ptr, i32, i32, i8, i8, [6 x i8] }>
%struct.jvmtiCapabilities = type { i64, i64 }
%struct.jvmtiEventCallbacks = type { ptr, ptr, ptr, ptr, ptr, ptr, ptr, ptr, ptr, ptr, ptr, ptr, ptr, ptr, ptr, ptr, ptr, ptr, ptr, ptr, ptr, ptr, ptr, ptr, ptr, ptr, ptr, ptr, ptr, ptr, ptr, ptr, ptr, ptr, ptr, ptr, ptr, ptr, ptr }
%struct.RefNode = type { i64, ptr, ptr, i32, i8, i8 }
%struct.JNINativeInterface_ = type { ptr, ptr, ptr, ptr, ptr, ptr, ptr, ptr, ptr, ptr, ptr, ptr, ptr, ptr, ptr, ptr, ptr, ptr, ptr, ptr, ptr, ptr, ptr, ptr, ptr, ptr, ptr, ptr, ptr, ptr, ptr, ptr, ptr, ptr, ptr, ptr, ptr, ptr, ptr, ptr, ptr, ptr, ptr, ptr, ptr, ptr, ptr, ptr, ptr, ptr, ptr, ptr, ptr, ptr, ptr, ptr, ptr, ptr, ptr, ptr, ptr, ptr, ptr, ptr, ptr, ptr, ptr, ptr, ptr, ptr, ptr, ptr, ptr, ptr, ptr, ptr, ptr, ptr, ptr, ptr, ptr, ptr, ptr, ptr, ptr, ptr, ptr, ptr, ptr, ptr, ptr, ptr, ptr, ptr, ptr, ptr, ptr, ptr, ptr, ptr, ptr, ptr, ptr, ptr, ptr, ptr, ptr, ptr, ptr, ptr, ptr, ptr, ptr, ptr, ptr, ptr, ptr, ptr, ptr, ptr, ptr, ptr, ptr, ptr, ptr, ptr, ptr, ptr, ptr, ptr, ptr, ptr, ptr, ptr, ptr, ptr, ptr, ptr, ptr, ptr, ptr, ptr, ptr, ptr, ptr, ptr, ptr, ptr, ptr, ptr, ptr, ptr, ptr, ptr, ptr, ptr, ptr, ptr, ptr, ptr, ptr, ptr, ptr, ptr, ptr, ptr, ptr, ptr, ptr, ptr, ptr, ptr, ptr, ptr, ptr, ptr, ptr, ptr, ptr, ptr, ptr, ptr, ptr, ptr, ptr, ptr, ptr, ptr, ptr, ptr, ptr, ptr, ptr, ptr, ptr, ptr, ptr, ptr, ptr, ptr, ptr, ptr, ptr, ptr, ptr, ptr, ptr, ptr, ptr, ptr, ptr, ptr, ptr, ptr, ptr, ptr, ptr, ptr, ptr, ptr, ptr, ptr, ptr, ptr, ptr, ptr, ptr, ptr, ptr, ptr, ptr, ptr, ptr, ptr, ptr }

@gdata = external global ptr, align 8
@.str.1 = private unnamed_addr constant [4 x i8] c"JNI\00", align 1
@.str.2 = private unnamed_addr constant [52 x i8] c"src/jdk.jdwp.agent/share/native/libjdwp/commonRef.c\00", align 1
@.str.3 = private unnamed_addr constant [5 x i8] c"%s()\00", align 1
@stderr = external global ptr, align 8
@.str.6 = private unnamed_addr constant [17 x i8] c"JDWP exit error \00", align 1
@.str.7 = private unnamed_addr constant [2 x i8] c"\0A\00", align 1
@.str.8 = private unnamed_addr constant [19 x i8] c"%s(%d): %s [%s:%d]\00", align 1
@.str.9 = private unnamed_addr constant [17 x i8] c"NewWeakGlobalRef\00", align 1
@.str.14 = private unnamed_addr constant [16 x i8] c"DeleteGlobalRef\00", align 1

; Function Attrs: nounwind uwtable
define internal zeroext i8 @isStrong(ptr noundef %0) #0 {
  %2 = alloca ptr, align 8
  store ptr %0, ptr %2, align 8
  %3 = load ptr, ptr %2, align 8
  %4 = getelementptr inbounds %struct.RefNode, ptr %3, i32 0, i32 4
  %5 = load i8, ptr %4, align 4
  %6 = zext i8 %5 to i32
  %7 = icmp ne i32 %6, 0
  br i1 %7, label %14, label %8

8:                                                ; preds = %1
  %9 = load ptr, ptr %2, align 8
  %10 = getelementptr inbounds %struct.RefNode, ptr %9, i32 0, i32 5
  %11 = load i8, ptr %10, align 1
  %12 = zext i8 %11 to i32
  %13 = icmp ne i32 %12, 0
  br label %14

14:                                               ; preds = %8, %1
  %15 = phi i1 [ true, %1 ], [ %13, %8 ]
  %16 = zext i1 %15 to i32
  %17 = trunc i32 %16 to i8
  ret i8 %17
}

; Function Attrs: nounwind uwtable
define internal ptr @weakenNode(ptr noundef %0, ptr noundef %1, i8 noundef zeroext %2) #0 {
  %4 = alloca ptr, align 8
  %5 = alloca ptr, align 8
  %6 = alloca ptr, align 8
  %7 = alloca i8, align 1
  %8 = alloca i8, align 1
  %9 = alloca ptr, align 8
  store ptr %0, ptr %5, align 8
  store ptr %1, ptr %6, align 8
  store i8 %2, ptr %7, align 1
  %10 = load ptr, ptr %6, align 8
  %11 = getelementptr inbounds %struct.RefNode, ptr %10, i32 0, i32 4
  %12 = load i8, ptr %11, align 4
  %13 = zext i8 %12 to i32
  %14 = icmp ne i32 %13, 0
  br i1 %14, label %15, label %18

15:                                               ; preds = %3
  %16 = load i8, ptr %7, align 1
  %17 = icmp ne i8 %16, 0
  br i1 %17, label %18, label %30

18:                                               ; preds = %15, %3
  %19 = load ptr, ptr %6, align 8
  %20 = getelementptr inbounds %struct.RefNode, ptr %19, i32 0, i32 5
  %21 = load i8, ptr %20, align 1
  %22 = zext i8 %21 to i32
  %23 = icmp ne i32 %22, 0
  br i1 %23, label %24, label %28

24:                                               ; preds = %18
  %25 = load i8, ptr %7, align 1
  %26 = zext i8 %25 to i32
  %27 = icmp ne i32 %26, 0
  br label %28

28:                                               ; preds = %24, %18
  %29 = phi i1 [ false, %18 ], [ %27, %24 ]
  br label %30

30:                                               ; preds = %28, %15
  %31 = phi i1 [ true, %15 ], [ %29, %28 ]
  %32 = zext i1 %31 to i32
  %33 = trunc i32 %32 to i8
  store i8 %33, ptr %8, align 1
  %34 = load ptr, ptr %6, align 8
  %35 = call zeroext i8 @isStrong(ptr noundef %34)
  %36 = zext i8 %35 to i32
  %37 = icmp ne i32 %36, 0
  br i1 %37, label %38, label %97

38:                                               ; preds = %30
  %39 = load i8, ptr %8, align 1
  %40 = icmp ne i8 %39, 0
  br i1 %40, label %97, label %41

41:                                               ; preds = %38
  %42 = load ptr, ptr @gdata, align 8
  %43 = getelementptr inbounds %struct.BackendGlobalData, ptr %42, i32 0, i32 38
  %44 = load i32, ptr %43, align 8
  %45 = and i32 %44, 2
  %46 = icmp ne i32 %45, 0
  br i1 %46, label %47, label %48

47:                                               ; preds = %41
  call void @log_message_begin(ptr noundef @.str.1, ptr noundef @.str.2, i32 noundef 211)
  call void (ptr, ...) @log_message_end(ptr noundef @.str.3, ptr noundef @.str.9)
  br label %49

48:                                               ; preds = %41
  br label %49

49:                                               ; preds = %48, %47
  %50 = load ptr, ptr %5, align 8
  %51 = load ptr, ptr %50, align 8
  %52 = getelementptr inbounds %struct.JNINativeInterface_, ptr %51, i32 0, i32 226
  %53 = load ptr, ptr %52, align 8
  %54 = load ptr, ptr %5, align 8
  %55 = load ptr, ptr %6, align 8
  %56 = getelementptr inbounds %struct.RefNode, ptr %55, i32 0, i32 1
  %57 = load ptr, ptr %56, align 8
  %58 = call ptr %53(ptr noundef %54, ptr noundef %57)
  store ptr %58, ptr %9, align 8
  %59 = load ptr, ptr %5, align 8
  %60 = load ptr, ptr %59, align 8
  %61 = getelementptr inbounds %struct.JNINativeInterface_, ptr %60, i32 0, i32 228
  %62 = load ptr, ptr %61, align 8
  %63 = load ptr, ptr %5, align 8
  %64 = call zeroext i8 %62(ptr noundef %63)
  %65 = icmp ne i8 %64, 0
  br i1 %65, label %66, label %72

66:                                               ; preds = %49
  %67 = load ptr, ptr %5, align 8
  %68 = load ptr, ptr %67, align 8
  %69 = getelementptr inbounds %struct.JNINativeInterface_, ptr %68, i32 0, i32 17
  %70 = load ptr, ptr %69, align 8
  %71 = load ptr, ptr %5, align 8
  call void %70(ptr noundef %71)
  br label %72

72:                                               ; preds = %66, %49
  %73 = load ptr, ptr %9, align 8
  %74 = icmp ne ptr %73, null
  br i1 %74, label %75, label %95

75:                                               ; preds = %72
  %76 = load ptr, ptr @gdata, align 8
  %77 = getelementptr inbounds %struct.BackendGlobalData, ptr %76, i32 0, i32 38
  %78 = load i32, ptr %77, align 8
  %79 = and i32 %78, 2
  %80 = icmp ne i32 %79, 0
  br i1 %80, label %81, label %82

81:                                               ; preds = %75
  call void @log_message_begin(ptr noundef @.str.1, ptr noundef @.str.2, i32 noundef 218)
  call void (ptr, ...) @log_message_end(ptr noundef @.str.3, ptr noundef @.str.14)
  br label %83

82:                                               ; preds = %75
  br label %83

83:                                               ; preds = %82, %81
  %84 = load ptr, ptr %5, align 8
  %85 = load ptr, ptr %84, align 8
  %86 = getelementptr inbounds %struct.JNINativeInterface_, ptr %85, i32 0, i32 22
  %87 = load ptr, ptr %86, align 8
  %88 = load ptr, ptr %5, align 8
  %89 = load ptr, ptr %6, align 8
  %90 = getelementptr inbounds %struct.RefNode, ptr %89, i32 0, i32 1
  %91 = load ptr, ptr %90, align 8
  call void %87(ptr noundef %88, ptr noundef %91)
  %92 = load ptr, ptr %9, align 8
  %93 = load ptr, ptr %6, align 8
  %94 = getelementptr inbounds %struct.RefNode, ptr %93, i32 0, i32 1
  store ptr %92, ptr %94, align 8
  br label %96

95:                                               ; preds = %72
  store ptr null, ptr %4, align 8
  br label %110

96:                                               ; preds = %83
  br label %97

97:                                               ; preds = %96, %38, %30
  %98 = load i8, ptr %7, align 1
  %99 = icmp ne i8 %98, 0
  br i1 %99, label %100, label %103

100:                                              ; preds = %97
  %101 = load ptr, ptr %6, align 8
  %102 = getelementptr inbounds %struct.RefNode, ptr %101, i32 0, i32 4
  store i8 0, ptr %102, align 4
  br label %106

103:                                              ; preds = %97
  %104 = load ptr, ptr %6, align 8
  %105 = getelementptr inbounds %struct.RefNode, ptr %104, i32 0, i32 5
  store i8 0, ptr %105, align 1
  br label %106

106:                                              ; preds = %103, %100
  %107 = load ptr, ptr %6, align 8
  %108 = getelementptr inbounds %struct.RefNode, ptr %107, i32 0, i32 1
  %109 = load ptr, ptr %108, align 8
  store ptr %109, ptr %4, align 8
  br label %110

110:                                              ; preds = %106, %95
  %111 = load ptr, ptr %4, align 8
  ret ptr %111
}

; Function Attrs: nounwind uwtable
define hidden void @commonRef_unpinAll() #0 {
  %1 = alloca ptr, align 8
  %2 = alloca ptr, align 8
  %3 = alloca i32, align 4
  %4 = alloca ptr, align 8
  %5 = load ptr, ptr @gdata, align 8
  %6 = getelementptr inbounds %struct.BackendGlobalData, ptr %5, i32 0, i32 40
  %7 = load ptr, ptr %6, align 8
  call void @debugMonitorEnter(ptr noundef %7)
  %8 = load ptr, ptr @gdata, align 8
  %9 = getelementptr inbounds %struct.BackendGlobalData, ptr %8, i32 0, i32 42
  %10 = load i32, ptr %9, align 8
  %11 = add i32 %10, -1
  store i32 %11, ptr %9, align 8
  %12 = load ptr, ptr @gdata, align 8
  %13 = getelementptr inbounds %struct.BackendGlobalData, ptr %12, i32 0, i32 42
  %14 = load i32, ptr %13, align 8
  %15 = icmp eq i32 %14, 0
  br i1 %15, label %16, label %54

16:                                               ; preds = %0
  %17 = call ptr @getEnv()
  store ptr %17, ptr %1, align 8
  store i32 0, ptr %3, align 4
  br label %18

18:                                               ; preds = %50, %16
  %19 = load i32, ptr %3, align 4
  %20 = load ptr, ptr @gdata, align 8
  %21 = getelementptr inbounds %struct.BackendGlobalData, ptr %20, i32 0, i32 45
  %22 = load i32, ptr %21, align 8
  %23 = icmp slt i32 %19, %22
  br i1 %23, label %24, label %53

24:                                               ; preds = %18
  %25 = load ptr, ptr @gdata, align 8
  %26 = getelementptr inbounds %struct.BackendGlobalData, ptr %25, i32 0, i32 44
  %27 = load ptr, ptr %26, align 8
  %28 = load i32, ptr %3, align 4
  %29 = sext i32 %28 to i64
  %30 = getelementptr inbounds ptr, ptr %27, i64 %29
  %31 = load ptr, ptr %30, align 8
  store ptr %31, ptr %2, align 8
  br label %32

32:                                               ; preds = %45, %24
  %33 = load ptr, ptr %2, align 8
  %34 = icmp ne ptr %33, null
  br i1 %34, label %35, label %49

35:                                               ; preds = %32
  %36 = load ptr, ptr %1, align 8
  %37 = load ptr, ptr %2, align 8
  %38 = call ptr @weakenNode(ptr noundef %36, ptr noundef %37, i8 noundef zeroext 1)
  store ptr %38, ptr %4, align 8
  %39 = load ptr, ptr %4, align 8
  %40 = icmp eq ptr %39, null
  br i1 %40, label %41, label %44

41:                                               ; preds = %35
  %42 = load ptr, ptr @stderr, align 8
  %43 = call ptr @jvmtiErrorText(i32 noundef 201)
  call void (ptr, ptr, ptr, ptr, ...) @print_message(ptr noundef %42, ptr noundef @.str.6, ptr noundef @.str.7, ptr noundef @.str.8, ptr noundef %43, i32 noundef 201, ptr noundef @.str.9, ptr noundef @.str.2, i32 noundef 651)
  call void @debugInit_exit(i32 noundef 201, ptr noundef @.str.9)
  br label %44

44:                                               ; preds = %41, %35
  br label %45

45:                                               ; preds = %44
  %46 = load ptr, ptr %2, align 8
  %47 = getelementptr inbounds %struct.RefNode, ptr %46, i32 0, i32 2
  %48 = load ptr, ptr %47, align 8
  store ptr %48, ptr %2, align 8
  br label %32, !llvm.loop !15

49:                                               ; preds = %32
  br label %50

50:                                               ; preds = %49
  %51 = load i32, ptr %3, align 4
  %52 = add nsw i32 %51, 1
  store i32 %52, ptr %3, align 4
  br label %18, !llvm.loop !16

53:                                               ; preds = %18
  br label %54

54:                                               ; preds = %53, %0
  %55 = load ptr, ptr @gdata, align 8
  %56 = getelementptr inbounds %struct.BackendGlobalData, ptr %55, i32 0, i32 40
  %57 = load ptr, ptr %56, align 8
  call void @debugMonitorExit(ptr noundef %57)
  ret void
}