; Function Attrs: nounwind uwtable
define hidden void @commonRef_unpinAll() local_unnamed_addr #0 {
  %1 = load ptr, ptr @gdata, align 8
  %2 = getelementptr inbounds i8, ptr %1, i64 536
  %3 = load ptr, ptr %2, align 8
  tail call void @debugMonitorEnter(ptr noundef %3) #5
  %4 = load ptr, ptr @gdata, align 8
  %5 = getelementptr inbounds i8, ptr %4, i64 552
  %6 = load i32, ptr %5, align 8
  %7 = add i32 %6, -1
  store i32 %7, ptr %5, align 8
  %8 = icmp eq i32 %7, 0
  br i1 %8, label %9, label %.loopexit

9:                                                ; preds = %0
  %10 = tail call ptr @getEnv() #5
  %11 = load ptr, ptr @gdata, align 8
  %12 = getelementptr inbounds i8, ptr %11, i64 568
  %13 = load i32, ptr %12, align 8
  %14 = icmp sgt i32 %13, 0
  br i1 %14, label %.lr.ph15, label %.loopexit

.lr.ph15:                                         ; preds = %9, %._crit_edge
  %15 = phi ptr [ %62, %._crit_edge ], [ %11, %9 ]
  %indvars.iv = phi i64 [ %indvars.iv.next, %._crit_edge ], [ 0, %9 ]
  %16 = getelementptr inbounds i8, ptr %15, i64 560
  %17 = load ptr, ptr %16, align 8
  %18 = getelementptr inbounds ptr, ptr %17, i64 %indvars.iv
  %.09 = load ptr, ptr %18, align 8
  %.not10 = icmp eq ptr %.09, null
  br i1 %.not10, label %._crit_edge, label %.lr.ph

.lr.ph:                                           ; preds = %.lr.ph15, %60
  %.011 = phi ptr [ %.0, %60 ], [ %.09, %.lr.ph15 ]
  %19 = getelementptr inbounds i8, ptr %.011, i64 28
  %20 = load i8, ptr %19, align 4
  %21 = icmp eq i8 %20, 0
  %22 = getelementptr inbounds i8, ptr %.011, i64 29
  %23 = load i8, ptr %22, align 1
  %24 = icmp ne i8 %23, 0
  %or.cond = select i1 %21, i1 true, i1 %24
  br i1 %or.cond, label %weakenNode.exit, label %25

25:                                               ; preds = %.lr.ph
  %26 = load ptr, ptr @gdata, align 8
  %27 = getelementptr inbounds i8, ptr %26, i64 528
  %28 = load i32, ptr %27, align 8
  %29 = and i32 %28, 2
  %.not.i = icmp eq i32 %29, 0
  br i1 %.not.i, label %31, label %30

30:                                               ; preds = %25
  tail call void @log_message_begin(ptr noundef nonnull @.str.1, ptr noundef nonnull @.str.2, i32 noundef 211) #5
  tail call void (ptr, ...) @log_message_end(ptr noundef nonnull @.str.3, ptr noundef nonnull @.str.9) #5
  br label %31

31:                                               ; preds = %30, %25
  %32 = load ptr, ptr %10, align 8
  %33 = getelementptr inbounds i8, ptr %32, i64 1808
  %34 = load ptr, ptr %33, align 8
  %35 = getelementptr inbounds i8, ptr %.011, i64 8
  %36 = load ptr, ptr %35, align 8
  %37 = tail call ptr %34(ptr noundef nonnull %10, ptr noundef %36) #5
  %38 = load ptr, ptr %10, align 8
  %39 = getelementptr inbounds i8, ptr %38, i64 1824
  %40 = load ptr, ptr %39, align 8
  %41 = tail call zeroext i8 %40(ptr noundef nonnull %10) #5
  %.not27.i = icmp eq i8 %41, 0
  br i1 %.not27.i, label %46, label %42

42:                                               ; preds = %31
  %43 = load ptr, ptr %10, align 8
  %44 = getelementptr inbounds i8, ptr %43, i64 136
  %45 = load ptr, ptr %44, align 8
  tail call void %45(ptr noundef nonnull %10) #5
  br label %46

46:                                               ; preds = %42, %31
  %.not28.i = icmp eq ptr %37, null
  br i1 %.not28.i, label %weakenNode.exit.thread, label %47

47:                                               ; preds = %46
  %48 = load ptr, ptr @gdata, align 8
  %49 = getelementptr inbounds i8, ptr %48, i64 528
  %50 = load i32, ptr %49, align 8
  %51 = and i32 %50, 2
  %.not29.i = icmp eq i32 %51, 0
  br i1 %.not29.i, label %weakenNode.exit.thread18, label %52

52:                                               ; preds = %47
  tail call void @log_message_begin(ptr noundef nonnull @.str.1, ptr noundef nonnull @.str.2, i32 noundef 218) #5
  tail call void (ptr, ...) @log_message_end(ptr noundef nonnull @.str.3, ptr noundef nonnull @.str.14) #5
  br label %weakenNode.exit.thread18

weakenNode.exit.thread18:                         ; preds = %47, %52
  %53 = load ptr, ptr %10, align 8
  %54 = getelementptr inbounds i8, ptr %53, i64 176
  %55 = load ptr, ptr %54, align 8
  %56 = load ptr, ptr %35, align 8
  tail call void %55(ptr noundef nonnull %10, ptr noundef %56) #5
  store ptr %37, ptr %35, align 8
  store i8 0, ptr %19, align 4
  br label %60

weakenNode.exit:                                  ; preds = %.lr.ph
  %.phi.trans.insert = getelementptr inbounds i8, ptr %.011, i64 8
  %.pre = load ptr, ptr %.phi.trans.insert, align 8
  store i8 0, ptr %19, align 4
  %57 = icmp eq ptr %.pre, null
  br i1 %57, label %weakenNode.exit.thread, label %60

weakenNode.exit.thread:                           ; preds = %46, %weakenNode.exit
  %58 = load ptr, ptr @stderr, align 8
  %59 = tail call ptr @jvmtiErrorText(i32 noundef 201) #5
  tail call void (ptr, ptr, ptr, ptr, ...) @print_message(ptr noundef %58, ptr noundef nonnull @.str.6, ptr noundef nonnull @.str.7, ptr noundef nonnull @.str.8, ptr noundef %59, i32 noundef 201, ptr noundef nonnull @.str.9, ptr noundef nonnull @.str.2, i32 noundef 651) #5
  tail call void @debugInit_exit(i32 noundef 201, ptr noundef nonnull @.str.9) #5
  br label %60

60:                                               ; preds = %weakenNode.exit.thread18, %weakenNode.exit, %weakenNode.exit.thread
  %61 = getelementptr inbounds i8, ptr %.011, i64 16
  %.0 = load ptr, ptr %61, align 8
  %.not = icmp eq ptr %.0, null
  br i1 %.not, label %._crit_edge.loopexit, label %.lr.ph, !llvm.loop !15

._crit_edge.loopexit:                             ; preds = %60
  %.pre17 = load ptr, ptr @gdata, align 8
  br label %._crit_edge

._crit_edge:                                      ; preds = %._crit_edge.loopexit, %.lr.ph15
  %62 = phi ptr [ %.pre17, %._crit_edge.loopexit ], [ %15, %.lr.ph15 ]
  %indvars.iv.next = add nuw nsw i64 %indvars.iv, 1
  %63 = getelementptr inbounds i8, ptr %62, i64 568
  %64 = load i32, ptr %63, align 8
  %65 = sext i32 %64 to i64
  %66 = icmp slt i64 %indvars.iv.next, %65
  br i1 %66, label %.lr.ph15, label %.loopexit, !llvm.loop !16

.loopexit:                                        ; preds = %._crit_edge, %9, %0
  %67 = phi ptr [ %11, %9 ], [ %4, %0 ], [ %62, %._crit_edge ]
  %68 = getelementptr inbounds i8, ptr %67, i64 536
  %69 = load ptr, ptr %68, align 8
  tail call void @debugMonitorExit(ptr noundef %69) #5
  ret void
}